; ModuleID = '50/254.c'
source_filename = "50/254.c"
target datalayout = "e-m:e-p270:32:32-p271:32:32-p272:64:64-i64:64-f80:128-n8:16:32:64-S128"
target triple = "x86_64-pc-linux-gnu"

@.str = private unnamed_addr constant [3 x i8] c"%d\00", align 1
@.str.1 = private unnamed_addr constant [4 x i8] c"4\0A7\00", align 1
@.str.2 = private unnamed_addr constant [5 x i8] c"9\0A12\00", align 1
@.str.3 = private unnamed_addr constant [2 x i8] c"6\00", align 1
@.str.4 = private unnamed_addr constant [7 x i8] c"2\0A3\0A11\00", align 1
@.str.5 = private unnamed_addr constant [2 x i8] c"8\00", align 1
@.str.6 = private unnamed_addr constant [2 x i8] c"5\00", align 1
@.str.7 = private unnamed_addr constant [5 x i8] c"1\0A10\00", align 1
@.str.8 = private unnamed_addr constant [2 x i8] c"\0A\00", align 1

; Function Attrs: noinline nounwind uwtable
define dso_local void @main() #0 {
  %1 = alloca i32, align 4
  %2 = alloca i8, align 1
  %3 = call i32 (i8*, ...) @__isoc99_scanf(i8* getelementptr inbounds ([3 x i8], [3 x i8]* @.str, i64 0, i64 0), i32* %1)
  br label %4

4:                                                ; preds = %51, %0
  %5 = call i32 @getchar()
  %6 = trunc i32 %5 to i8
  store i8 %6, i8* %2, align 1
  %7 = sext i8 %6 to i32
  %8 = icmp ne i32 %7, -1
  br i1 %8, label %9, label %53

9:                                                ; preds = %4
  %10 = call i32 (i8*, ...) @__isoc99_scanf(i8* getelementptr inbounds ([3 x i8], [3 x i8]* @.str, i64 0, i64 0), i32* %1)
  %11 = load i32, i32* %1, align 4
  %12 = icmp eq i32 %11, 1
  br i1 %12, label %13, label %15

13:                                               ; preds = %9
  %14 = call i32 (i8*, ...) @printf(i8* getelementptr inbounds ([4 x i8], [4 x i8]* @.str.1, i64 0, i64 0))
  br label %51

15:                                               ; preds = %9
  %16 = load i32, i32* %1, align 4
  %17 = icmp eq i32 %16, 2
  br i1 %17, label %18, label %20

18:                                               ; preds = %15
  %19 = call i32 (i8*, ...) @printf(i8* getelementptr inbounds ([5 x i8], [5 x i8]* @.str.2, i64 0, i64 0))
  br label %50

20:                                               ; preds = %15
  %21 = load i32, i32* %1, align 4
  %22 = icmp eq i32 %21, 3
  br i1 %22, label %23, label %25

23:                                               ; preds = %20
  %24 = call i32 (i8*, ...) @printf(i8* getelementptr inbounds ([2 x i8], [2 x i8]* @.str.3, i64 0, i64 0))
  br label %49

25:                                               ; preds = %20
  %26 = load i32, i32* %1, align 4
  %27 = icmp eq i32 %26, 4
  br i1 %27, label %28, label %30

28:                                               ; preds = %25
  %29 = call i32 (i8*, ...) @printf(i8* getelementptr inbounds ([7 x i8], [7 x i8]* @.str.4, i64 0, i64 0))
  br label %48

30:                                               ; preds = %25
  %31 = load i32, i32* %1, align 4
  %32 = icmp eq i32 %31, 5
  br i1 %32, label %33, label %35

33:                                               ; preds = %30
  %34 = call i32 (i8*, ...) @printf(i8* getelementptr inbounds ([2 x i8], [2 x i8]* @.str.5, i64 0, i64 0))
  br label %47

35:                                               ; preds = %30
  %36 = load i32, i32* %1, align 4
  %37 = icmp eq i32 %36, 6
  br i1 %37, label %38, label %40

38:                                               ; preds = %35
  %39 = call i32 (i8*, ...) @printf(i8* getelementptr inbounds ([2 x i8], [2 x i8]* @.str.6, i64 0, i64 0))
  br label %46

40:                                               ; preds = %35
  %41 = load i32, i32* %1, align 4
  %42 = icmp eq i32 %41, 7
  br i1 %42, label %43, label %45

43:                                               ; preds = %40
  %44 = call i32 (i8*, ...) @printf(i8* getelementptr inbounds ([5 x i8], [5 x i8]* @.str.7, i64 0, i64 0))
  br label %45

45:                                               ; preds = %43, %40
  br label %46

46:                                               ; preds = %45, %38
  br label %47

47:                                               ; preds = %46, %33
  br label %48

48:                                               ; preds = %47, %28
  br label %49

49:                                               ; preds = %48, %23
  br label %50

50:                                               ; preds = %49, %18
  br label %51

51:                                               ; preds = %50, %13
  %52 = call i32 (i8*, ...) @printf(i8* getelementptr inbounds ([2 x i8], [2 x i8]* @.str.8, i64 0, i64 0))
  br label %4

53:                                               ; preds = %4
  ret void
}

declare dso_local i32 @__isoc99_scanf(i8*, ...) #1

declare dso_local i32 @getchar() #1

declare dso_local i32 @printf(i8*, ...) #1


!llvm.module.flags = !{!0}
!llvm.ident = !{!1}

!0 = !{i32 1, !"wchar_size", i32 4}
!1 = !{!"clang version 10.0.0-4ubuntu1 "}
